target datalayout = "e-m:e-p270:32:32-p271:32:32-p272:64:64-i64:64-i128:128-f80:128-n8:16:32:64-S128"
target triple = "x86_64-pc-linux-gnu"

%struct.lv_color_t = type { i8, i8, i8 }

@opa_saved = internal global i8 0, align 1

; Function Attrs: nounwind uwtable
define internal void @add_to_cell(ptr noundef %0, i32 noundef %1, i32 noundef %2) #0 {
  %4 = alloca ptr, align 8
  %5 = alloca i32, align 4
  %6 = alloca i32, align 4
  store ptr %0, ptr %4, align 8, !tbaa !8
  store i32 %1, ptr %5, align 4, !tbaa !3
  store i32 %2, ptr %6, align 4, !tbaa !3
  %7 = load ptr, ptr %4, align 8, !tbaa !8
  %8 = load i32, ptr %5, align 4, !tbaa !3
  %9 = load i32, ptr %6, align 4, !tbaa !3
  call void @lv_obj_set_grid_cell(ptr noundef %7, i32 noundef 1, i32 noundef %8, i32 noundef 1, i32 noundef 1, i32 noundef %9, i32 noundef 1)
  ret void
}

; Function Attrs: nounwind uwtable
define internal ptr @image_obj_create(ptr noundef %0, i32 noundef %1, i32 noundef %2, i1 noundef zeroext %3) #0 {
  %5 = alloca ptr, align 8
  %6 = alloca i32, align 4
  %7 = alloca i32, align 4
  %8 = alloca i8, align 1
  %9 = alloca ptr, align 8
  %10 = alloca %struct.lv_color_t, align 1
  %11 = alloca i24, align 4
  store ptr %0, ptr %5, align 8, !tbaa !8
  store i32 %1, ptr %6, align 4, !tbaa !3
  store i32 %2, ptr %7, align 4, !tbaa !3
  %12 = zext i1 %3 to i8
  store i8 %12, ptr %8, align 1, !tbaa !56
  call void @llvm.lifetime.start.p0(i64 8, ptr %9) #5
  %13 = load ptr, ptr %5, align 8, !tbaa !8
  %14 = call ptr @lv_image_create(ptr noundef %13)
  store ptr %14, ptr %9, align 8, !tbaa !8
  %15 = load ptr, ptr %9, align 8, !tbaa !8
  call void @lv_obj_remove_style_all(ptr noundef %15)
  %16 = load i8, ptr %8, align 1, !tbaa !56, !range !58, !noundef !59
  %17 = trunc i8 %16 to i1
  br i1 %17, label %18, label %23

18:                                               ; preds = %4
  %19 = load ptr, ptr %9, align 8, !tbaa !8
  call void @lv_obj_set_style_image_recolor_opa(ptr noundef %19, i8 noundef zeroext 127, i32 noundef 0)
  %20 = load ptr, ptr %9, align 8, !tbaa !8
  %21 = call i24 @lv_color_hex3(i32 noundef 240)
  store i24 %21, ptr %10, align 1
  call void @llvm.memcpy.p0.p0.i64(ptr align 4 %11, ptr align 1 %10, i64 3, i1 false)
  %22 = load i24, ptr %11, align 4
  call void @lv_obj_set_style_image_recolor(ptr noundef %20, i24 %22, i32 noundef 0)
  br label %23

23:                                               ; preds = %18, %4
  %24 = load ptr, ptr %9, align 8, !tbaa !8
  %25 = load i8, ptr @opa_saved, align 1, !tbaa !7
  call void @lv_obj_set_style_opa(ptr noundef %24, i8 noundef zeroext %25, i32 noundef 0)
  %26 = load ptr, ptr %9, align 8, !tbaa !8
  %27 = load i32, ptr %6, align 4, !tbaa !3
  %28 = load i32, ptr %7, align 4, !tbaa !3
  call void @add_to_cell(ptr noundef %26, i32 noundef %27, i32 noundef %28)
  %29 = load ptr, ptr %9, align 8, !tbaa !8
  call void @llvm.lifetime.end.p0(i64 8, ptr %9) #5
  ret ptr %29
}