; Function Attrs: nounwind uwtable
define internal fastcc noundef ptr @image_obj_create(ptr noundef %0, i32 noundef range(i32 1, 8) %1, i32 noundef range(i32 -8, 21) %2, i1 noundef zeroext %3) unnamed_addr #0 {
  %5 = tail call ptr @lv_image_create(ptr noundef %0) #6
  tail call void @lv_obj_remove_style_all(ptr noundef %5) #6
  br i1 %3, label %6, label %8

6:                                                ; preds = %4
  tail call void @lv_obj_set_style_image_recolor_opa(ptr noundef %5, i8 noundef zeroext 127, i32 noundef 0) #6
  %7 = tail call i24 @lv_color_hex3(i32 noundef 240) #6
  tail call void @lv_obj_set_style_image_recolor(ptr noundef %5, i24 %7, i32 noundef 0) #6
  br label %8

8:                                                ; preds = %6, %4
  %9 = load i8, ptr @opa_saved, align 1, !tbaa !3
  tail call void @lv_obj_set_style_opa(ptr noundef %5, i8 noundef zeroext %9, i32 noundef 0) #6
  tail call void @lv_obj_set_grid_cell(ptr noundef %5, i32 noundef 1, i32 noundef range(i32 0, 9) %1, i32 noundef 1, i32 noundef 1, i32 noundef range(i32 -8, 21) %2, i32 noundef 1) #6
  ret ptr %5
}